; Function Attrs: mustprogress uwtable
define noundef zeroext i1 @_ZNK6icu_756number4impl30PropertiesAffixPatternProvider21hasNegativeSubpatternEv(ptr noundef nonnull align 8 dereferenceable(267) %this) unnamed_addr #1 align 2 personality ptr @__gxx_personality_v0 {
entry:
  %ref.tmp = alloca %"class.icu_75::UnicodeString", align 8
  %negSuffix = getelementptr inbounds i8, ptr %this, i64 200
  %posSuffix = getelementptr inbounds i8, ptr %this, i64 72
  %fUnion.i.i.i = getelementptr inbounds i8, ptr %this, i64 208
  %0 = load i16, ptr %fUnion.i.i.i, align 8
  %conv2.i14.i.i = and i16 %0, 1
  %tobool.not.i.i = icmp eq i16 %conv2.i14.i.i, 0
  br i1 %tobool.not.i.i, label %if.else.i.i, label %if.then.i.i

if.then.i.i:                                      ; preds = %entry
  %fUnion.i5.i.i = getelementptr inbounds i8, ptr %this, i64 80
  %1 = load i16, ptr %fUnion.i5.i.i, align 8
  %conv2.i615.i.i = and i16 %1, 1
  %tobool3.i.i.not = icmp eq i16 %conv2.i615.i.i, 0
  br i1 %tobool3.i.i.not, label %cleanup.done, label %lor.lhs.false

if.else.i.i:                                      ; preds = %entry
  %cmp.i.i.i.i = icmp slt i16 %0, 0
  %2 = ashr i16 %0, 5
  %shr.i.i.i.i = sext i16 %2 to i32
  %fLength.i.i.i = getelementptr inbounds i8, ptr %this, i64 212
  %3 = load i32, ptr %fLength.i.i.i, align 4
  %cond.i.i.i = select i1 %cmp.i.i.i.i, i32 %3, i32 %shr.i.i.i.i
  %fUnion.i.i7.i.i = getelementptr inbounds i8, ptr %this, i64 80
  %4 = load i16, ptr %fUnion.i.i7.i.i, align 8
  %cmp.i.i8.i.i = icmp slt i16 %4, 0
  %5 = ashr i16 %4, 5
  %shr.i.i9.i.i = sext i16 %5 to i32
  %fLength.i10.i.i = getelementptr inbounds i8, ptr %this, i64 84
  %6 = load i32, ptr %fLength.i10.i.i, align 4
  %cond.i11.i.i = select i1 %cmp.i.i8.i.i, i32 %6, i32 %shr.i.i9.i.i
  %conv2.i1316.i.i = and i16 %4, 1
  %tobool7.not.i.i = icmp eq i16 %conv2.i1316.i.i, 0
  %cmp.i.i = icmp eq i32 %cond.i.i.i, %cond.i11.i.i
  %or.cond.i.i = and i1 %tobool7.not.i.i, %cmp.i.i
  br i1 %or.cond.i.i, label %_ZNK6icu_7513UnicodeStringneERKS0_.exit, label %cleanup.done

_ZNK6icu_7513UnicodeStringneERKS0_.exit:          ; preds = %if.else.i.i
  %call8.i.i = tail call noundef signext i8 @_ZNK6icu_7513UnicodeString8doEqualsERKS0_i(ptr noundef nonnull align 8 dereferenceable(64) %negSuffix, ptr noundef nonnull align 8 dereferenceable(64) %posSuffix, i32 noundef %cond.i.i.i)
  %tobool9.i.i.not = icmp eq i8 %call8.i.i, 0
  br i1 %tobool9.i.i.not, label %cleanup.done, label %lor.lhs.false

lor.lhs.false:                                    ; preds = %if.then.i.i, %_ZNK6icu_7513UnicodeStringneERKS0_.exit
  %negPrefix = getelementptr inbounds i8, ptr %this, i64 136
  call void @_ZNK6icu_7513UnicodeString13tempSubStringEii(ptr nonnull sret(%"class.icu_75::UnicodeString") align 8 %ref.tmp, ptr noundef nonnull align 8 dereferenceable(64) %negPrefix, i32 noundef 1, i32 noundef 2147483647)
  %posPrefix = getelementptr inbounds i8, ptr %this, i64 8
  %fUnion.i.i.i1 = getelementptr inbounds i8, ptr %ref.tmp, i64 8
  %7 = load i16, ptr %fUnion.i.i.i1, align 8
  %conv2.i14.i.i2 = and i16 %7, 1
  %tobool.not.i.i3 = icmp eq i16 %conv2.i14.i.i2, 0
  br i1 %tobool.not.i.i3, label %if.else.i.i10, label %if.then.i.i4

if.then.i.i4:                                     ; preds = %lor.lhs.false
  %fUnion.i5.i.i5 = getelementptr inbounds i8, ptr %this, i64 16
  %8 = load i16, ptr %fUnion.i5.i.i5, align 8
  %conv2.i615.i.i6 = and i16 %8, 1
  %tobool3.i.i7.not = icmp eq i16 %conv2.i615.i.i6, 0
  br i1 %tobool3.i.i7.not, label %cleanup.action, label %lor.rhs

if.else.i.i10:                                    ; preds = %lor.lhs.false
  %cmp.i.i.i.i11 = icmp slt i16 %7, 0
  %9 = ashr i16 %7, 5
  %shr.i.i.i.i12 = sext i16 %9 to i32
  %fLength.i.i.i13 = getelementptr inbounds i8, ptr %ref.tmp, i64 12
  %10 = load i32, ptr %fLength.i.i.i13, align 4
  %cond.i.i.i14 = select i1 %cmp.i.i.i.i11, i32 %10, i32 %shr.i.i.i.i12
  %fUnion.i.i7.i.i15 = getelementptr inbounds i8, ptr %this, i64 16
  %11 = load i16, ptr %fUnion.i.i7.i.i15, align 8
  %cmp.i.i8.i.i16 = icmp slt i16 %11, 0
  %12 = ashr i16 %11, 5
  %shr.i.i9.i.i17 = sext i16 %12 to i32
  %fLength.i10.i.i18 = getelementptr inbounds i8, ptr %this, i64 20
  %13 = load i32, ptr %fLength.i10.i.i18, align 4
  %cond.i11.i.i19 = select i1 %cmp.i.i8.i.i16, i32 %13, i32 %shr.i.i9.i.i17
  %conv2.i1316.i.i20 = and i16 %11, 1
  %tobool7.not.i.i21 = icmp eq i16 %conv2.i1316.i.i20, 0
  %cmp.i.i22 = icmp eq i32 %cond.i.i.i14, %cond.i11.i.i19
  %or.cond.i.i23 = and i1 %tobool7.not.i.i21, %cmp.i.i22
  br i1 %or.cond.i.i23, label %land.rhs.i.i24, label %cleanup.action

land.rhs.i.i24:                                   ; preds = %if.else.i.i10
  %call8.i.i2527 = invoke noundef signext i8 @_ZNK6icu_7513UnicodeString8doEqualsERKS0_i(ptr noundef nonnull align 8 dereferenceable(64) %ref.tmp, ptr noundef nonnull align 8 dereferenceable(64) %posPrefix, i32 noundef %cond.i.i.i14)
          to label %invoke.cont unwind label %lpad

invoke.cont:                                      ; preds = %land.rhs.i.i24
  %tobool9.i.i26.not = icmp eq i8 %call8.i.i2527, 0
  br i1 %tobool9.i.i26.not, label %cleanup.action, label %lor.rhs

lor.rhs:                                          ; preds = %if.then.i.i4, %invoke.cont
  %fUnion.i.i.i.i = getelementptr inbounds i8, ptr %this, i64 144
  %14 = load i16, ptr %fUnion.i.i.i.i, align 8
  %cmp.i.i.i.i29 = icmp slt i16 %14, 0
  %15 = ashr i16 %14, 5
  %shr.i.i.i.i30 = sext i16 %15 to i32
  %fLength.i.i.i31 = getelementptr inbounds i8, ptr %this, i64 148
  %16 = load i32, ptr %fLength.i.i.i31, align 4
  %cond.i.i.i32 = select i1 %cmp.i.i.i.i29, i32 %16, i32 %shr.i.i.i.i30
  %cmp.i.i33.not = icmp eq i32 %cond.i.i.i32, 0
  br i1 %cmp.i.i33.not, label %cleanup.action, label %if.then.i.i35

if.then.i.i35:                                    ; preds = %lor.rhs
  %17 = and i16 %14, 2
  %tobool.not.i.i.i = icmp eq i16 %17, 0
  %fBuffer.i.i.i = getelementptr inbounds i8, ptr %this, i64 146
  %fArray.i.i.i = getelementptr inbounds i8, ptr %this, i64 160
  %18 = load ptr, ptr %fArray.i.i.i, align 8
  %cond.i2.i.i = select i1 %tobool.not.i.i.i, ptr %18, ptr %fBuffer.i.i.i
  %19 = load i16, ptr %cond.i2.i.i, align 2
  %20 = icmp ne i16 %19, 45
  br label %cleanup.action

cleanup.action:                                   ; preds = %if.then.i.i4, %lor.rhs, %if.then.i.i35, %if.else.i.i10, %invoke.cont
  %.ph = phi i1 [ true, %invoke.cont ], [ true, %if.else.i.i10 ], [ %20, %if.then.i.i35 ], [ true, %lor.rhs ], [ true, %if.then.i.i4 ]
  call void @_ZN6icu_7513UnicodeStringD1Ev(ptr noundef nonnull align 8 dereferenceable(64) %ref.tmp) #12
  br label %cleanup.done

cleanup.done:                                     ; preds = %if.then.i.i, %if.else.i.i, %_ZNK6icu_7513UnicodeStringneERKS0_.exit, %cleanup.action
  %21 = phi i1 [ %.ph, %cleanup.action ], [ true, %_ZNK6icu_7513UnicodeStringneERKS0_.exit ], [ true, %if.else.i.i ], [ true, %if.then.i.i ]
  ret i1 %21

lpad:                                             ; preds = %land.rhs.i.i24
  %22 = landingpad { ptr, i32 }
          cleanup
  call void @_ZN6icu_7513UnicodeStringD1Ev(ptr noundef nonnull align 8 dereferenceable(64) %ref.tmp) #12
  resume { ptr, i32 } %22
}